0000000000208140 D a
                 U __assert_fail@@GLIBC_2.2.5
0000000000208020 D b
0000000000208258 B __bss_start
0000000000208498 b completed.7698
                 U __cxa_allocate_exception@@CXXABI_1.3
                 U __cxa_atexit@@GLIBC_2.2.5
                 w __cxa_finalize@@GLIBC_2.2.5
                 U __cxa_free_exception@@CXXABI_1.3
                 U __cxa_pure_virtual@@CXXABI_1.3
                 U __cxa_throw@@CXXABI_1.3
0000000000208000 D __data_start
0000000000208000 W data_start
0000000000002680 t deregister_tm_clones
0000000000002710 t __do_global_dtors_aux
00000000002078b8 t __do_global_dtors_aux_fini_array_entry
0000000000208008 D __dso_handle
0000000000208250 V DW.ref.__gxx_personality_v0
0000000000207bf8 d _DYNAMIC
0000000000208258 D _edata
00000000002084a0 B _end
0000000000005174 T _fini
0000000000002750 t frame_dummy
00000000002078a8 t __frame_dummy_init_array_entry
0000000000006c7c r __FRAME_END__
0000000000207e08 d _GLOBAL_OFFSET_TABLE_
0000000000002570 t _GLOBAL__sub_I_a
                 w __gmon_start__
0000000000005fd0 r __GNU_EH_FRAME_HDR
                 U __gxx_personality_v0@@CXXABI_1.3
00000000000021f0 T _init
00000000002078b8 t __init_array_end
00000000002078a8 t __init_array_start
0000000000005180 R _IO_stdin_used
                 w _ITM_deregisterTMCloneTable
                 w _ITM_registerTMCloneTable
0000000000005170 T __libc_csu_fini
0000000000005100 T __libc_csu_init
                 U __libc_start_main@@GLIBC_2.2.5
000000000000259b T main
                 U memmove@@GLIBC_2.2.5
                 U __memset_chk@@GLIBC_2.3.4
00000000000026c0 t register_tm_clones
                 U __stack_chk_fail@@GLIBC_2.4
0000000000002650 T _start
0000000000208258 D __TMC_END__
                 U __udivmodti4@@GCC_3.0
                 U __udivti3@@GCC_3.0
                 U __umodti3@@GCC_3.0
                 U _Unwind_Resume@@GCC_3.0
                 U _ZdlPvm@@CXXABI_1.3.9
0000000000003ef3 W _ZN5boost10conversion6detail14throw_bad_castIyNSt7__cxx1112basic_stringIcSt11char_traitsIcESaIcEEEEEvv
000000000000468a W _ZN5boost10wrapexceptINS_16bad_lexical_castEEC1ERKS2_
000000000000468a W _ZN5boost10wrapexceptINS_16bad_lexical_castEEC2ERKS2_
0000000000003002 W _ZN5boost10wrapexceptINS_16bad_lexical_castEED0Ev
0000000000002fc0 W _ZN5boost10wrapexceptINS_16bad_lexical_castEED1Ev
0000000000002fc0 W _ZN5boost10wrapexceptINS_16bad_lexical_castEED2Ev
000000000000479e W _ZN5boost10wrapexceptISt13runtime_errorEC1ERKS2_
000000000000479e W _ZN5boost10wrapexceptISt13runtime_errorEC2ERKS2_
00000000000030ce W _ZN5boost10wrapexceptISt13runtime_errorED0Ev
000000000000308c W _ZN5boost10wrapexceptISt13runtime_errorED1Ev
000000000000308c W _ZN5boost10wrapexceptISt13runtime_errorED2Ev
00000000000048a8 W _ZN5boost10wrapexceptISt14overflow_errorEC1ERKS2_
00000000000048a8 W _ZN5boost10wrapexceptISt14overflow_errorEC2ERKS2_
0000000000003068 W _ZN5boost10wrapexceptISt14overflow_errorED0Ev
0000000000003026 W _ZN5boost10wrapexceptISt14overflow_errorED1Ev
0000000000003026 W _ZN5boost10wrapexceptISt14overflow_errorED2Ev
0000000000002982 W _ZN5boost14multiprecision13std_constexpr4copyIPKyPyEET0_T_S7_S6_
0000000000002866 W _ZN5boost14multiprecision6detail17read_string_whileERSiRKNSt7__cxx1112basic_stringIcSt11char_traitsIcESaIcEEE
00000000000029a5 W _ZN5boost14multiprecision8backends12add_unsignedINS1_15cpp_int_backendILj2048ELj2048ELNS0_16cpp_integer_typeE0ELNS0_18cpp_int_check_typeE0EvEES6_EEvRT_RKT0_RKy
00000000000032ec W _ZN5boost14multiprecision8backends12cpp_int_baseILj2048ELj2048ELNS0_16cpp_integer_typeE0ELNS0_18cpp_int_check_typeE0EvLb0EE6assignERKS5_
0000000000002ab2 W _ZN5boost14multiprecision8backends12cpp_int_baseILj2048ELj2048ELNS0_16cpp_integer_typeE0ELNS0_18cpp_int_check_typeE0EvLb0EE6negateEv
000000000000275a t _ZN5boost14multiprecision8backends12cpp_int_baseILj2048ELj2048ELNS0_16cpp_integer_typeE0ELNS0_18cpp_int_check_typeE0EvLb0EE6resizeEjj.isra.29
000000000000322e W _ZN5boost14multiprecision8backends12cpp_int_baseILj2048ELj2048ELNS0_16cpp_integer_typeE0ELNS0_18cpp_int_check_typeE0EvLb0EE7do_swapERS5_
0000000000002960 W _ZN5boost14multiprecision8backends12cpp_int_baseILj2048ELj2048ELNS0_16cpp_integer_typeE0ELNS0_18cpp_int_check_typeE0EvLb0EE9normalizeEv
0000000000002a5f W _ZN5boost14multiprecision8backends14eval_incrementILj2048ELj2048ELNS0_16cpp_integer_typeE0ELNS0_18cpp_int_check_typeE0EvEENS_11enable_if_cIXntsrNS1_18is_trivial_cpp_intINS1_15cpp_int_backendIXT_EXT0_EXT1_EXT2_ET3_EEEE5valueEvE4typeERS9_
00000000000049bc W _ZN5boost14multiprecision8backends15cpp_int_backendILj2048ELj2048ELNS0_16cpp_integer_typeE0ELNS0_18cpp_int_check_typeE0EvE16do_assign_stringEPKcRKN4mpl_5bool_ILb0EEE
000000000000276c t _ZN5boost14multiprecision8backends15cpp_int_backendILj2048ELj2048ELNS0_16cpp_integer_typeE0ELNS0_18cpp_int_check_typeE0EvE20do_assign_arithmeticEoRKN4mpl_5bool_ILb0EEE.isra.33
0000000000003e15 W _ZN5boost14multiprecision8backends16right_shift_byteINS1_15cpp_int_backendILj2048ELj2048ELNS0_16cpp_integer_typeE0ELNS0_18cpp_int_check_typeE0EvEEEEvRT_o
0000000000002b11 W _ZN5boost14multiprecision8backends17subtract_unsignedINS1_15cpp_int_backendILj2048ELj2048ELNS0_16cpp_integer_typeE0ELNS0_18cpp_int_check_typeE0EvEES6_EEvRT_RKT0_RKy
0000000000003d44 W _ZN5boost14multiprecision8backends19right_shift_genericINS1_15cpp_int_backendILj2048ELj2048ELNS0_16cpp_integer_typeE0ELNS0_18cpp_int_check_typeE0EvEEEEvRT_o
0000000000002df9 W _ZN5boost14multiprecision8backends22add_unsigned_constexprINS1_15cpp_int_backendILj2048ELj2048ELNS0_16cpp_integer_typeE0ELNS0_18cpp_int_check_typeE0EvEES6_S6_EEvRT_RKT0_RKT1_
000000000000330c W _ZN5boost14multiprecision8backends22divide_unsigned_helperINS1_15cpp_int_backendILj2048ELj2048ELNS0_16cpp_integer_typeE0ELNS0_18cpp_int_check_typeE0EvEES6_EEvPT_RKT0_yRS7_
00000000000036f8 W _ZN5boost14multiprecision8backends22divide_unsigned_helperINS1_15cpp_int_backendILj2048ELj2048ELNS0_16cpp_integer_typeE0ELNS0_18cpp_int_check_typeE0EvEES6_S6_EEvPT_RKT0_RKT1_RS7_
0000000000002c02 W _ZN5boost14multiprecision8backends27subtract_unsigned_constexprINS1_15cpp_int_backendILj2048ELj2048ELNS0_16cpp_integer_typeE0ELNS0_18cpp_int_check_typeE0EvEES6_S6_EEvRT_RKT0_RKT1_
00000000000045b6 W _ZN5boost14multiprecisionlsINS0_8backends15cpp_int_backendILj2048ELj2048ELNS0_16cpp_integer_typeE0ELNS0_18cpp_int_check_typeE0EvEELNS0_26expression_template_optionE0EEERSoS8_RKNS0_6numberIT_XT0_EEE
0000000000004ee3 W _ZN5boost14multiprecisionrsINS0_8backends15cpp_int_backendILj2048ELj2048ELNS0_16cpp_integer_typeE0ELNS0_18cpp_int_check_typeE0EvEELNS0_26expression_template_optionE0EEERSiS8_RNS0_6numberIT_XT0_EEE
0000000000003270 W _ZN5boost15throw_exceptionISt13runtime_errorEEvRKT_RKNS_15source_locationE
000000000000279e W _ZN5boost16bad_lexical_castD0Ev
000000000000278e W _ZN5boost16bad_lexical_castD1Ev
000000000000278e W _ZN5boost16bad_lexical_castD2Ev
00000000000030f2 W _ZN5boost16exception_detail12refcount_ptrINS0_20error_info_containerEE7add_refEv
0000000000002fa0 W _ZN5boost16exception_detail12refcount_ptrINS0_20error_info_containerEE7releaseEv
0000000000003143 W _ZN5boost16exception_detail20copy_boost_exceptionEPNS_9exceptionEPKS1_
0000000000003faa W _ZN5boost6detail18lcast_put_unsignedISt11char_traitsIcEycE17main_convert_loopEv
0000000000003fde W _ZN5boost6detail18lcast_put_unsignedISt11char_traitsIcEycE7convertEv
0000000000003102 W _ZN5boost9exceptionC1ERKS0_
0000000000003102 W _ZN5boost9exceptionC2ERKS0_
0000000000004742 W _ZNK5boost10wrapexceptINS_16bad_lexical_castEE5cloneEv
00000000000046f8 W _ZNK5boost10wrapexceptINS_16bad_lexical_castEE7rethrowEv
000000000000484c W _ZNK5boost10wrapexceptISt13runtime_errorE5cloneEv
0000000000004802 W _ZNK5boost10wrapexceptISt13runtime_errorE7rethrowEv
0000000000004960 W _ZNK5boost10wrapexceptISt14overflow_errorE5cloneEv
0000000000004916 W _ZNK5boost10wrapexceptISt14overflow_errorE7rethrowEv
0000000000004148 W _ZNK5boost14multiprecision8backends15cpp_int_backendILj2048ELj2048ELNS0_16cpp_integer_typeE0ELNS0_18cpp_int_check_typeE0EvE13do_get_stringB5cxx11ESt13_Ios_FmtflagsRKN4mpl_5bool_ILb0EEE
0000000000002bcc W _ZNK5boost14multiprecision8backends15cpp_int_backendILj2048ELj2048ELNS0_16cpp_integer_typeE0ELNS0_18cpp_int_check_typeE0EvE16compare_unsignedILj2048ELj2048ELS3_0ELS4_0EvEEiRKNS2_IXT_EXT0_EXT1_EXT2_ET3_EE
0000000000002786 W _ZNK5boost16bad_lexical_cast4whatEv
                 U _ZNKSt13runtime_error4whatEv@@GLIBCXX_3.4
                 U _ZNKSt6localeeqERKS_@@GLIBCXX_3.4
                 U _ZNKSt7__cxx1112basic_stringIcSt11char_traitsIcESaIcEE17find_first_not_ofEcm@@GLIBCXX_3.4.21
                 U _ZNKSt7__cxx1112basic_stringIcSt11char_traitsIcESaIcEE17find_first_not_ofEPKcm@@GLIBCXX_3.4.21
                 U _ZNKSt7__cxx1112basic_stringIcSt11char_traitsIcESaIcEE4findEcm@@GLIBCXX_3.4.21
                 U _ZNKSt7__cxx118numpunctIcE13thousands_sepEv@@GLIBCXX_3.4.21
                 U _ZNKSt7__cxx118numpunctIcE8groupingEv@@GLIBCXX_3.4.21
                 U _ZNKSt9basic_iosIcSt11char_traitsIcEE4fillEv@@GLIBCXX_3.4
                 U _ZNSi6sentryC1ERSib@@GLIBCXX_3.4
                 U _ZNSt13runtime_errorC1EPKc@@GLIBCXX_3.4.21
                 U _ZNSt13runtime_errorC2ERKS_@@GLIBCXX_3.4.21
                 U _ZNSt13runtime_errorD1Ev@@GLIBCXX_3.4
                 U _ZNSt13runtime_errorD2Ev@@GLIBCXX_3.4
                 U _ZNSt14overflow_errorC1EPKc@@GLIBCXX_3.4.21
                 U _ZNSt14overflow_errorD1Ev@@GLIBCXX_3.4
                 U _ZNSt14overflow_errorD2Ev@@GLIBCXX_3.4.15
                 U _ZNSt15basic_streambufIcSt11char_traitsIcEE5sgetcEv@@GLIBCXX_3.4
                 U _ZNSt15basic_streambufIcSt11char_traitsIcEE6snextcEv@@GLIBCXX_3.4
                 U _ZNSt6locale7classicEv@@GLIBCXX_3.4
                 U _ZNSt6localeC1Ev@@GLIBCXX_3.4
                 U _ZNSt6localeD1Ev@@GLIBCXX_3.4
                 U _ZNSt7__cxx1112basic_stringIcSt11char_traitsIcESaIcEE10_M_disposeEv@@GLIBCXX_3.4.21
                 U _ZNSt7__cxx1112basic_stringIcSt11char_traitsIcESaIcEE13_S_copy_charsEPcPKcS7_@@GLIBCXX_3.4.21
                 U _ZNSt7__cxx1112basic_stringIcSt11char_traitsIcESaIcEE5eraseEmm@@GLIBCXX_3.4.21
                 U _ZNSt7__cxx1112basic_stringIcSt11char_traitsIcESaIcEE6appendEmc@@GLIBCXX_3.4.21
                 U _ZNSt7__cxx1112basic_stringIcSt11char_traitsIcESaIcEE6assignEmc@@GLIBCXX_3.4.21
                 U _ZNSt7__cxx1112basic_stringIcSt11char_traitsIcESaIcEE6insertEmmc@@GLIBCXX_3.4.21
                 U _ZNSt7__cxx1112basic_stringIcSt11char_traitsIcESaIcEE6insertEmPKc@@GLIBCXX_3.4.21
                 U _ZNSt7__cxx1112basic_stringIcSt11char_traitsIcESaIcEE7replaceEN9__gnu_cxx17__normal_iteratorIPKcS4_EES9_S8_S8_@@GLIBCXX_3.4.21
                 U _ZNSt7__cxx1112basic_stringIcSt11char_traitsIcESaIcEE9_M_createERmm@@GLIBCXX_3.4.21
                 U _ZNSt7__cxx1112basic_stringIcSt11char_traitsIcESaIcEEaSEOS4_@@GLIBCXX_3.4.21
                 U _ZNSt7__cxx1112basic_stringIcSt11char_traitsIcESaIcEEaSEPKc@@GLIBCXX_3.4.21
00000000000027b6 t _ZNSt7__cxx1112basic_stringIcSt11char_traitsIcESaIcEEC2EPKcRKS3_.isra.54
                 U _ZNSt8bad_castD2Ev@@GLIBCXX_3.4
                 U _ZNSt8ios_base4InitC1Ev@@GLIBCXX_3.4
                 U _ZNSt8ios_base4InitD1Ev@@GLIBCXX_3.4
                 U _ZNSt9basic_iosIcSt11char_traitsIcEE8setstateESt12_Ios_Iostate@@GLIBCXX_3.4
                 U _Znwm@@GLIBCXX_3.4
                 U _ZSt19__throw_logic_errorPKc@@GLIBCXX_3.4
0000000000208380 B _ZSt3cin@@GLIBCXX_3.4
0000000000208260 B _ZSt4cout@@GLIBCXX_3.4
                 U _ZSt4endlIcSt11char_traitsIcEERSt13basic_ostreamIT_T0_ES6_@@GLIBCXX_3.4
                 U _ZSt9use_facetINSt7__cxx118numpunctIcEEERKT_RKSt6locale@@GLIBCXX_3.4.21
0000000000208499 b _ZStL8__ioinit
                 U _ZStlsIcSt11char_traitsIcESaIcEERSt13basic_ostreamIT_T0_ES7_RKNSt7__cxx1112basic_stringIS4_S5_T1_EE@@GLIBCXX_3.4.21
00000000000030eb W _ZThn24_N5boost10wrapexceptISt13runtime_errorED0Ev
00000000000030c7 W _ZThn24_N5boost10wrapexceptISt13runtime_errorED1Ev
0000000000003085 W _ZThn24_N5boost10wrapexceptISt14overflow_errorED0Ev
0000000000003061 W _ZThn24_N5boost10wrapexceptISt14overflow_errorED1Ev
000000000000301f W _ZThn32_N5boost10wrapexceptINS_16bad_lexical_castEED0Ev
0000000000002ffb W _ZThn32_N5boost10wrapexceptINS_16bad_lexical_castEED1Ev
0000000000003019 W _ZThn8_N5boost10wrapexceptINS_16bad_lexical_castEED0Ev
0000000000002ff5 W _ZThn8_N5boost10wrapexceptINS_16bad_lexical_castEED1Ev
00000000000030e5 W _ZThn8_N5boost10wrapexceptISt13runtime_errorED0Ev
00000000000030c1 W _ZThn8_N5boost10wrapexceptISt13runtime_errorED1Ev
000000000000307f W _ZThn8_N5boost10wrapexceptISt14overflow_errorED0Ev
000000000000305b W _ZThn8_N5boost10wrapexceptISt14overflow_errorED1Ev
0000000000207a70 V _ZTIN5boost10wrapexceptINS_16bad_lexical_castEEE
0000000000207a18 V _ZTIN5boost10wrapexceptISt13runtime_errorEE
00000000002079d0 V _ZTIN5boost10wrapexceptISt14overflow_errorEE
00000000002079b8 V _ZTIN5boost16bad_lexical_castE
00000000002079a8 V _ZTIN5boost16exception_detail10clone_baseE
0000000000207998 V _ZTIN5boost9exceptionE
0000000000207a60 V _ZTINSt7__cxx1112basic_stringIcSt11char_traitsIcESaIcEEE
                 U _ZTISt13runtime_error@@GLIBCXX_3.4
                 U _ZTISt14overflow_error@@GLIBCXX_3.4
                 U _ZTISt8bad_cast@@GLIBCXX_3.4
0000000000207960 V _ZTIy@@CXXABI_1.3
0000000000005fa0 V _ZTSN5boost10wrapexceptINS_16bad_lexical_castEEE
0000000000005f20 V _ZTSN5boost10wrapexceptISt13runtime_errorEE
0000000000005ee0 V _ZTSN5boost10wrapexceptISt14overflow_errorEE
0000000000005eb0 V _ZTSN5boost16bad_lexical_castE
0000000000005e80 V _ZTSN5boost16exception_detail10clone_baseE
0000000000005e50 V _ZTSN5boost9exceptionE
0000000000005f60 V _ZTSNSt7__cxx1112basic_stringIcSt11char_traitsIcESaIcEEE
                 U _ZTVN10__cxxabiv117__class_type_infoE@@CXXABI_1.3
                 U _ZTVN10__cxxabiv120__si_class_type_infoE@@CXXABI_1.3
                 U _ZTVN10__cxxabiv121__vmi_class_type_infoE@@CXXABI_1.3
00000000002078e8 V _ZTVN5boost10wrapexceptINS_16bad_lexical_castEEE
0000000000207b80 V _ZTVN5boost10wrapexceptISt13runtime_errorEE
0000000000207b08 V _ZTVN5boost10wrapexceptISt14overflow_errorEE
00000000002078c0 V _ZTVN5boost16bad_lexical_castE
0000000000207ad8 V _ZTVN5boost16exception_detail10clone_baseE
0000000000207ab8 V _ZTVN5boost9exceptionE
0000000000207970 V _ZTVSt14overflow_error@@GLIBCXX_3.4
0000000000005580 r _ZZN5boost14multiprecision8backends15cpp_int_backendILj2048ELj2048ELNS0_16cpp_integer_typeE0ELNS0_18cpp_int_check_typeE0EvE16do_assign_stringEPKcRKN4mpl_5bool_ILb0EEEE19__PRETTY_FUNCTION__
0000000000005460 r _ZZN5boost14multiprecision8backends16right_shift_byteINS1_15cpp_int_backendILj2048ELj2048ELNS0_16cpp_integer_typeE0ELNS0_18cpp_int_check_typeE0EvEEEEvRT_oE19__PRETTY_FUNCTION__
0000000000005760 r _ZZN5boost14multiprecision8backends19right_shift_genericINS1_15cpp_int_backendILj2048ELj2048ELNS0_16cpp_integer_typeE0ELNS0_18cpp_int_check_typeE0EvEEEEvRT_oE19__PRETTY_FUNCTION__
00000000000058a0 r _ZZN5boost14multiprecision8backends22divide_unsigned_helperINS1_15cpp_int_backendILj2048ELj2048ELNS0_16cpp_integer_typeE0ELNS0_18cpp_int_check_typeE0EvEES6_EEvPT_RKT0_yRS7_E19__PRETTY_FUNCTION__
0000000000005a60 r _ZZN5boost14multiprecision8backends22divide_unsigned_helperINS1_15cpp_int_backendILj2048ELj2048ELNS0_16cpp_integer_typeE0ELNS0_18cpp_int_check_typeE0EvEES6_S6_EEvPT_RKT0_RKT1_RS7_E19__PRETTY_FUNCTION__
0000000000005c40 r _ZZN5boost14multiprecision8backends27subtract_unsigned_constexprINS1_15cpp_int_backendILj2048ELj2048ELNS0_16cpp_integer_typeE0ELNS0_18cpp_int_check_typeE0EvEES6_S6_EEvRT_RKT0_RKT1_E19__PRETTY_FUNCTION__
